(lp0
(V0354176212122121
p1
(V1230745600000000
p2
VRz1
p3
L2L
tp4
tp5
a(V0354176212122121
p6
(V3265047112122121
p7
VRx1
p8
L2L
tp9
tp10
a(V4567012300000000
p11
(V0354176212122121
p12
g3
L3L
tp13
tp14
a(V4567012300000000
p15
(V5326471021211212
p16
g8
L3L
tp17
tp18
a(V3265047112122121
p19
(g16
VRy1
p20
L3L
tp21
tp22
a(V1047265312122121
p23
(V7104653221211212
p24
g20
L3L
tp25
tp26
a(V4035762121211212
p27
(g24
g3
L3L
tp28
tp29
a(V6217540321211212
p30
(V2301674500000000
p31
g8
L3L
tp32
tp33
a(V1047265312122121
p34
(g31
g3
L3L
tp35
tp36
a(V1230745600000000
p37
(V2653104721211212
p38
g8
L3L
tp39
tp40
a(V6532710412122121
p41
(g38
g20
L3L
tp42
tp43
a(V3540217621211212
p44
(g38
g3
L3L
tp45
tp46
a(V3540217621211212
p47
(V5674301200000000
p48
g8
L3L
tp49
tp50
a(V6745230100000000
p51
(g48
g20
L3L
tp52
tp53
a(V0123456700000000
p54
(V1762035421211212
p55
g8
L4L
tp56
tp57
a(V2653104721211212
p58
(g55
g3
L4L
tp59
tp60
a(V5674301200000000
p61
(V4567012300000000
p62
g20
L4L
tp63
tp64
a(V7621403512122121
p65
(g62
g3
L4L
tp66
tp67
a(V7621403512122121
p68
(V6532710412122121
p69
g8
L4L
tp70
tp71
a(V5326471021211212
p72
(g69
g20
L4L
tp73
tp74
a(V2301674500000000
p75
(g69
g3
L4L
tp76
tp77
a(V0471326521211212
p78
(V1047265312122121
p79
g20
L4L
tp80
tp81
a(V7456123000000000
p82
(g79
g3
L4L
tp83
tp84
a(V2301674500000000
p85
(V3540217621211212
p86
g8
L4L
tp87
tp88
a(V0471326521211212
p89
(g86
g3
L4L
tp90
tp91
a(V5674301200000000
p92
(V6217540321211212
p93
g8
L4L
tp94
tp95
a(V2176354012122121
p96
(g93
g20
L4L
tp97
tp98
a(V7104653221211212
p99
(g93
g3
L4L
tp100
tp101
a(V2653104721211212
p102
(V6745230100000000
p103
g8
L4L
tp104
tp105
a(V7456123000000000
p106
(g103
g20
L4L
tp107
tp108
a(V5403621712122121
p109
(g103
g3
L4L
tp110
tp111
a(V5326471021211212
p112
(V3012567400000000
p113
g8
L4L
tp114
tp115
a(V0123456700000000
p116
(g113
g20
L4L
tp117
tp118
a(V2176354012122121
p119
(g113
g3
L4L
tp120
tp121
a(V5403621712122121
p122
(V4710532612122121
p123
g8
L4L
tp124
tp125
a(V7104653221211212
p126
(g123
g20
L4L
tp127
tp128
a(V0123456700000000
p129
(g123
g3
L4L
tp130
tp131
a(V4710532612122121
p132
(V7621403512122121
p133
g8
L5L
tp134
tp135
a(V6217540321211212
p136
(g133
g20
L5L
tp137
tp138
a(V1230745600000000
p139
(g133
g3
L5L
tp140
tp141
a(V3012567400000000
p142
(V0471326521211212
p143
g8
L5L
tp144
tp145
a(V4710532612122121
p146
(g143
g20
L5L
tp147
tp148
a(V1762035421211212
p149
(g143
g3
L5L
tp150
tp151
a(V3265047112122121
p152
(V2176354012122121
p153
g8
L5L
tp154
tp155
a(V1762035421211212
p156
(g153
g20
L5L
tp157
tp158
a(V6745230100000000
p159
(g153
g3
L5L
tp160
tp161
a(V6532710412122121
p162
(V5403621712122121
p163
g8
L5L
tp164
tp165
a(V4035762121211212
p166
(g163
g20
L5L
tp167
tp168
a(V3012567400000000
p169
(g163
g3
L5L
tp170
tp171
a.