(lp0
(V7456123000000000
p1
(V4035762121211212
p2
VRx1
p3
L2L
tp4
tp5
a(V1762035421211212
p6
(g2
VRx2
p7
L2L
tp8
tp9
a(V0123456700000000
p10
(g2
VRx3
p11
L2L
tp12
tp13
a(V1762035421211212
p14
(V7456123000000000
p15
g3
L2L
tp16
tp17
a(V0123456700000000
p18
(g15
g7
L2L
tp19
tp20
a(V4035762121211212
p21
(g15
g11
L2L
tp22
tp23
a(V5674301200000000
p24
(g15
VRy2
p25
L2L
tp26
tp27
a(V2301674500000000
p28
(g15
VRz2
p29
L2L
tp30
tp31
a(V0123456700000000
p32
(V1762035421211212
p33
g3
L2L
tp34
tp35
a(V4035762121211212
p36
(g33
g7
L2L
tp37
tp38
a(V7456123000000000
p39
(g33
g11
L2L
tp40
tp41
a(V6217540321211212
p42
(g33
g25
L2L
tp43
tp44
a(V3540217621211212
p45
(g33
g29
L2L
tp46
tp47
a(V7104653221211212
p48
(V1230745600000000
p49
g3
L2L
tp50
tp51
a(V6745230100000000
p52
(g49
g7
L2L
tp53
tp54
a(V2653104721211212
p55
(g49
g11
L2L
tp56
tp57
a(V2301674500000000
p58
(g49
VRy1
p59
L2L
tp60
tp61
a(V3012567400000000
p62
(g49
g25
L2L
tp63
tp64
a(V0123456700000000
p65
(g49
VRy3
p66
L2L
tp67
tp68
a(V0354176212122121
p69
(g49
VRz1
p70
L2L
tp71
tp72
a(V4567012300000000
p73
(g49
g29
L2L
tp74
tp75
a(V7621403512122121
p76
(g49
VRz3
p77
L2L
tp78
tp79
a(V6217540321211212
p80
(V2301674500000000
p81
g3
L2L
tp82
tp83
a(V5674301200000000
p84
(g81
g7
L2L
tp85
tp86
a(V3540217621211212
p87
(g81
g11
L2L
tp88
tp89
a(V3012567400000000
p90
(g81
g59
L2L
tp91
tp92
a(V0123456700000000
p93
(g81
g25
L2L
tp94
tp95
a(V1230745600000000
p96
(g81
g66
L2L
tp97
tp98
a(V1047265312122121
p99
(g81
g70
L2L
tp100
tp101
a(V7456123000000000
p102
(g81
g29
L2L
tp103
tp104
a(V6532710412122121
p105
(g81
g77
L2L
tp106
tp107
a(V5326471021211212
p108
(V3012567400000000
p109
g3
L2L
tp110
tp111
a(V4567012300000000
p112
(g109
g7
L2L
tp113
tp114
a(V0471326521211212
p115
(g109
g11
L2L
tp116
tp117
a(V0123456700000000
p118
(g109
g59
L2L
tp119
tp120
a(V1230745600000000
p121
(g109
g25
L2L
tp122
tp123
a(V2301674500000000
p124
(g109
g66
L2L
tp125
tp126
a(V2176354012122121
p127
(g109
g70
L2L
tp128
tp129
a(V6745230100000000
p130
(g109
g29
L2L
tp131
tp132
a(V5403621712122121
p133
(g109
g77
L2L
tp134
tp135
a(V0354176212122121
p136
(V3265047112122121
p137
g3
L2L
tp138
tp139
a(V1047265312122121
p140
(g137
g7
L2L
tp141
tp142
a(V2176354012122121
p143
(g137
g11
L2L
tp144
tp145
a(V2653104721211212
p146
(g137
g59
L2L
tp147
tp148
a(V6532710412122121
p149
(g137
g25
L2L
tp150
tp151
a(V5326471021211212
p152
(g137
g66
L2L
tp153
tp154
a(V5674301200000000
p155
(g137
g70
L2L
tp156
tp157
a(V4710532612122121
p158
(g137
g29
L2L
tp159
tp160
a(V0123456700000000
p161
(g137
g77
L2L
tp162
tp163
a(V3540217621211212
p164
(V5674301200000000
p165
g3
L2L
tp166
tp167
a(V2301674500000000
p168
(g165
g7
L2L
tp169
tp170
a(V6217540321211212
p171
(g165
g11
L2L
tp172
tp173
a(V6745230100000000
p174
(g165
g59
L2L
tp175
tp176
a(V7456123000000000
p177
(g165
g25
L2L
tp178
tp179
a(V4567012300000000
p180
(g165
g66
L2L
tp181
tp182
a(V4710532612122121
p183
(g165
g70
L2L
tp184
tp185
a(V0123456700000000
p186
(g165
g29
L2L
tp187
tp188
a(V3265047112122121
p189
(g165
g77
L2L
tp190
tp191
a(V5403621712122121
p192
(V4710532612122121
p193
g3
L2L
tp194
tp195
a(V6532710412122121
p196
(g193
g7
L2L
tp197
tp198
a(V7621403512122121
p199
(g193
g11
L2L
tp200
tp201
a(V7104653221211212
p202
(g193
g59
L2L
tp203
tp204
a(V1047265312122121
p205
(g193
g25
L2L
tp206
tp207
a(V0471326521211212
p208
(g193
g66
L2L
tp209
tp210
a(V0123456700000000
p211
(g193
g70
L2L
tp212
tp213
a(V3265047112122121
p214
(g193
g29
L2L
tp215
tp216
a(V5674301200000000
p217
(g193
g77
L2L
tp218
tp219
a(V1047265312122121
p220
(V0354176212122121
p221
g3
L3L
tp222
tp223
a(V2176354012122121
p224
(g221
g7
L3L
tp225
tp226
a(V3265047112122121
p227
(g221
g11
L3L
tp228
tp229
a(V3540217621211212
p230
(g221
g59
L3L
tp231
tp232
a(V5403621712122121
p233
(g221
g25
L3L
tp234
tp235
a(V4035762121211212
p236
(g221
g66
L3L
tp237
tp238
a(V4567012300000000
p239
(g221
g70
L3L
tp240
tp241
a(V7621403512122121
p242
(g221
g29
L3L
tp243
tp244
a(V1230745600000000
p245
(g221
g77
L3L
tp246
tp247
a(V2301674500000000
p248
(V3540217621211212
p249
g3
L3L
tp250
tp251
a(V6217540321211212
p252
(g249
g7
L3L
tp253
tp254
a(V5674301200000000
p255
(g249
g11
L3L
tp256
tp257
a(V5403621712122121
p258
(g249
g59
L3L
tp259
tp260
a(V4035762121211212
p261
(g249
g25
L3L
tp262
tp263
a(V0354176212122121
p264
(g249
g66
L3L
tp265
tp266
a(V0471326521211212
p267
(g249
g70
L3L
tp268
tp269
a(V1762035421211212
p270
(g249
g29
L3L
tp271
tp272
a(V2653104721211212
p273
(g249
g77
L3L
tp274
tp275
a(V6532710412122121
p276
(V5403621712122121
p277
g3
L3L
tp278
tp279
a(V7621403512122121
p280
(g277
g7
L3L
tp281
tp282
a(V4710532612122121
p283
(g277
g11
L3L
tp284
tp285
a(V4035762121211212
p286
(g277
g59
L3L
tp287
tp288
a(V0354176212122121
p289
(g277
g25
L3L
tp290
tp291
a(V3540217621211212
p292
(g277
g66
L3L
tp293
tp294
a(V3012567400000000
p295
(g277
g70
L3L
tp296
tp297
a(V2176354012122121
p298
(g277
g29
L3L
tp299
tp300
a(V6745230100000000
p301
(g277
g77
L3L
tp302
tp303
a(V4567012300000000
p304
(V5326471021211212
p305
g3
L3L
tp306
tp307
a(V0471326521211212
p308
(g305
g7
L3L
tp309
tp310
a(V3012567400000000
p311
(g305
g11
L3L
tp312
tp313
a(V3265047112122121
p314
(g305
g59
L3L
tp315
tp316
a(V2653104721211212
p317
(g305
g25
L3L
tp318
tp319
a(V6532710412122121
p320
(g305
g66
L3L
tp321
tp322
a(V6217540321211212
p323
(g305
g70
L3L
tp324
tp325
a(V7104653221211212
p326
(g305
g29
L3L
tp327
tp328
a(V4035762121211212
p329
(g305
g77
L3L
tp330
tp331
a(V5674301200000000
p332
(V6217540321211212
p333
g3
L3L
tp334
tp335
a(V3540217621211212
p336
(g333
g7
L3L
tp337
tp338
a(V2301674500000000
p339
(g333
g11
L3L
tp340
tp341
a(V2176354012122121
p342
(g333
g59
L3L
tp343
tp344
a(V1762035421211212
p345
(g333
g25
L3L
tp346
tp347
a(V7621403512122121
p348
(g333
g66
L3L
tp349
tp350
a(V7104653221211212
p351
(g333
g70
L3L
tp352
tp353
a(V4035762121211212
p354
(g333
g29
L3L
tp355
tp356
a(V5326471021211212
p357
(g333
g77
L3L
tp358
tp359
a(V6745230100000000
p360
(V7104653221211212
p361
g3
L3L
tp362
tp363
a(V2653104721211212
p364
(g361
g7
L3L
tp365
tp366
a(V1230745600000000
p367
(g361
g11
L3L
tp368
tp369
a(V1047265312122121
p370
(g361
g59
L3L
tp371
tp372
a(V0471326521211212
p373
(g361
g25
L3L
tp374
tp375
a(V4710532612122121
p376
(g361
g66
L3L
tp377
tp378
a(V4035762121211212
p379
(g361
g70
L3L
tp380
tp381
a(V5326471021211212
p382
(g361
g29
L3L
tp383
tp384
a(V6217540321211212
p385
(g361
g77
L3L
tp386
tp387
a(V0471326521211212
p388
(V4567012300000000
p389
g3
L3L
tp390
tp391
a(V3012567400000000
p392
(g389
g7
L3L
tp393
tp394
a(V5326471021211212
p395
(g389
g11
L3L
tp396
tp397
a(V5674301200000000
p398
(g389
g59
L3L
tp399
tp400
a(V6745230100000000
p401
(g389
g25
L3L
tp402
tp403
a(V7456123000000000
p404
(g389
g66
L3L
tp405
tp406
a(V7621403512122121
p407
(g389
g70
L3L
tp408
tp409
a(V1230745600000000
p410
(g389
g29
L3L
tp411
tp412
a(V0354176212122121
p413
(g389
g77
L3L
tp414
tp415
a(V2653104721211212
p416
(V6745230100000000
p417
g3
L3L
tp418
tp419
a(V1230745600000000
p420
(g417
g7
L3L
tp421
tp422
a(V7104653221211212
p423
(g417
g11
L3L
tp424
tp425
a(V7456123000000000
p426
(g417
g59
L3L
tp427
tp428
a(V4567012300000000
p429
(g417
g25
L3L
tp430
tp431
a(V5674301200000000
p432
(g417
g66
L3L
tp433
tp434
a(V5403621712122121
p435
(g417
g70
L3L
tp436
tp437
a(V3012567400000000
p438
(g417
g29
L3L
tp439
tp440
a(V2176354012122121
p441
(g417
g77
L3L
tp442
tp443
a(V7621403512122121
p444
(V6532710412122121
p445
g3
L3L
tp446
tp447
a(V4710532612122121
p448
(g445
g7
L3L
tp449
tp450
a(V5403621712122121
p451
(g445
g11
L3L
tp452
tp453
a(V5326471021211212
p454
(g445
g59
L3L
tp455
tp456
a(V3265047112122121
p457
(g445
g25
L3L
tp458
tp459
a(V2653104721211212
p460
(g445
g66
L3L
tp461
tp462
a(V2301674500000000
p463
(g445
g70
L3L
tp464
tp465
a(V1047265312122121
p466
(g445
g29
L3L
tp467
tp468
a(V7456123000000000
p469
(g445
g77
L3L
tp470
tp471
a(V2176354012122121
p472
(V1047265312122121
p473
g3
L3L
tp474
tp475
a(V3265047112122121
p476
(g473
g7
L3L
tp477
tp478
a(V0354176212122121
p479
(g473
g11
L3L
tp480
tp481
a(V0471326521211212
p482
(g473
g59
L3L
tp483
tp484
a(V4710532612122121
p485
(g473
g25
L3L
tp486
tp487
a(V7104653221211212
p488
(g473
g66
L3L
tp489
tp490
a(V7456123000000000
p491
(g473
g70
L3L
tp492
tp493
a(V6532710412122121
p494
(g473
g29
L3L
tp495
tp496
a(V2301674500000000
p497
(g473
g77
L3L
tp498
tp499
a(V4710532612122121
p500
(V7621403512122121
p501
g3
L3L
tp502
tp503
a(V5403621712122121
p504
(g501
g7
L3L
tp505
tp506
a(V6532710412122121
p507
(g501
g11
L3L
tp508
tp509
a(V6217540321211212
p510
(g501
g59
L3L
tp511
tp512
a(V2176354012122121
p513
(g501
g25
L3L
tp514
tp515
a(V1762035421211212
p516
(g501
g66
L3L
tp517
tp518
a(V1230745600000000
p519
(g501
g70
L3L
tp520
tp521
a(V0354176212122121
p522
(g501
g29
L3L
tp523
tp524
a(V4567012300000000
p525
(g501
g77
L3L
tp526
tp527
a(V3265047112122121
p528
(V2176354012122121
p529
g3
L3L
tp530
tp531
a(V0354176212122121
p532
(g529
g7
L3L
tp533
tp534
a(V1047265312122121
p535
(g529
g11
L3L
tp536
tp537
a(V1762035421211212
p538
(g529
g59
L3L
tp539
tp540
a(V7621403512122121
p541
(g529
g25
L3L
tp542
tp543
a(V6217540321211212
p544
(g529
g66
L3L
tp545
tp546
a(V6745230100000000
p547
(g529
g70
L3L
tp548
tp549
a(V5403621712122121
p550
(g529
g29
L3L
tp551
tp552
a(V3012567400000000
p553
(g529
g77
L3L
tp554
tp555
a(V1230745600000000
p556
(V2653104721211212
p557
g3
L3L
tp558
tp559
a(V7104653221211212
p560
(g557
g7
L3L
tp561
tp562
a(V6745230100000000
p563
(g557
g11
L3L
tp564
tp565
a(V6532710412122121
p566
(g557
g59
L3L
tp567
tp568
a(V5326471021211212
p569
(g557
g25
L3L
tp570
tp571
a(V3265047112122121
p572
(g557
g66
L3L
tp573
tp574
a(V3540217621211212
p575
(g557
g70
L3L
tp576
tp577
a(V0471326521211212
p578
(g557
g29
L3L
tp579
tp580
a(V1762035421211212
p581
(g557
g77
L3L
tp582
tp583
a(V3012567400000000
p584
(V0471326521211212
p585
g3
L3L
tp586
tp587
a(V5326471021211212
p588
(g585
g7
L3L
tp589
tp590
a(V4567012300000000
p591
(g585
g11
L3L
tp592
tp593
a(V4710532612122121
p594
(g585
g59
L3L
tp595
tp596
a(V7104653221211212
p597
(g585
g25
L3L
tp598
tp599
a(V1047265312122121
p600
(g585
g66
L3L
tp601
tp602
a(V1762035421211212
p603
(g585
g70
L3L
tp604
tp605
a(V2653104721211212
p606
(g585
g29
L3L
tp607
tp608
a(V3540217621211212
p609
(g585
g77
L3L
tp610
tp611
a.