(dp0
V0123456700000000
p1
(V
p2
g2
L0L
tp3
sV4035762121211212
p4
(g1
VRx1
p5
L1L
tp6
sV7456123000000000
p7
(g1
VRx2
p8
L1L
tp9
sV1762035421211212
p10
(g1
VRx3
p11
L1L
tp12
sV1230745600000000
p13
(g1
VRy1
p14
L1L
tp15
sV2301674500000000
p16
(g1
VRy2
p17
L1L
tp18
sV3012567400000000
p19
(g1
VRy3
p20
L1L
tp21
sV3265047112122121
p22
(g1
VRz1
p23
L1L
tp24
sV5674301200000000
p25
(g1
VRz2
p26
L1L
tp27
sV4710532612122121
p28
(g1
VRz3
p29
L1L
tp30
sV0354176212122121
p31
(g4
g14
L2L
tp32
sV3540217621211212
p33
(g4
g17
L2L
tp34
sV5403621712122121
p35
(g4
g20
L2L
tp36
sV5326471021211212
p37
(g4
g23
L2L
tp38
sV6217540321211212
p39
(g4
g26
L2L
tp40
sV7104653221211212
p41
(g4
g29
L2L
tp42
sV4567012300000000
p43
(g7
g14
L2L
tp44
sV6745230100000000
p45
(g7
g20
L2L
tp46
sV6532710412122121
p47
(g7
g23
L2L
tp48
sV1047265312122121
p49
(g7
g29
L2L
tp50
sV7621403512122121
p51
(g10
g14
L2L
tp52
sV2176354012122121
p53
(g10
g20
L2L
tp54
sV2653104721211212
p55
(g10
g23
L2L
tp56
sV0471326521211212
p57
(g10
g29
L2L
tp58
s.