(dp0
V0123456700000000
p1
(V
p2
g2
L0L
tp3
sV4035762121211212
p4
(g1
VRx
p5
L1L
tp6
sV1230745600000000
p7
(g1
VRy
p8
L1L
tp9
sV3265047112122121
p10
(g1
VRz
p11
L1L
tp12
sV7456123000000000
p13
(g4
g5
L2L
tp14
sV0354176212122121
p15
(g4
g8
L2L
tp16
sV5326471021211212
p17
(g4
g11
L2L
tp18
sV7104653221211212
p19
(g7
g5
L2L
tp20
sV2301674500000000
p21
(g7
g8
L2L
tp22
sV2653104721211212
p23
(g10
g8
L2L
tp24
sV5674301200000000
p25
(g10
g11
L2L
tp26
sV1762035421211212
p27
(g13
g5
L3L
tp28
sV4567012300000000
p29
(g13
g8
L3L
tp30
sV6532710412122121
p31
(g13
g11
L3L
tp32
sV1047265312122121
p33
(g15
g5
L3L
tp34
sV3540217621211212
p35
(g15
g8
L3L
tp36
sV6217540321211212
p37
(g17
g11
L3L
tp38
sV6745230100000000
p39
(g19
g5
L3L
tp40
sV3012567400000000
p41
(g21
g8
L3L
tp42
sV4710532612122121
p43
(g25
g11
L3L
tp44
sV7621403512122121
p45
(g27
g8
L4L
tp46
sV0471326521211212
p47
(g29
g5
L4L
tp48
sV2176354012122121
p49
(g33
g5
L4L
tp50
sV5403621712122121
p51
(g35
g8
L4L
tp52
s.